; Function Attrs: mustprogress uwtable
define dso_local noundef double @_Z14luaL_optnumberP9lua_Stateid(ptr noundef %0, i32 noundef %1, double noundef %2) local_unnamed_addr #2 {
  %4 = alloca i32, align 4
  %5 = tail call noundef i32 @_Z8lua_typeP9lua_Statei(ptr noundef %0, i32 noundef %1)
  %6 = icmp slt i32 %5, 1
  br i1 %6, label %11, label %7

7:                                                ; preds = %3
  call void @llvm.lifetime.start.p0(i64 4, ptr nonnull %4)
  %8 = call noundef double @_Z13lua_tonumberxP9lua_StateiPi(ptr noundef %0, i32 noundef %1, ptr noundef nonnull %4)
  %9 = load i32, ptr %4, align 4
  %.not.i = icmp eq i32 %9, 0
  br i1 %.not.i, label %10, label %_Z16luaL_checknumberP9lua_Statei.exit

10:                                               ; preds = %7
  call fastcc void @_ZL9tag_errorP9lua_Stateii(ptr noundef %0, i32 noundef %1, i32 noundef 3) #11
  unreachable

_Z16luaL_checknumberP9lua_Statei.exit:            ; preds = %7
  call void @llvm.lifetime.end.p0(i64 4, ptr nonnull %4)
  br label %11

11:                                               ; preds = %3, %_Z16luaL_checknumberP9lua_Statei.exit
  %12 = phi double [ %8, %_Z16luaL_checknumberP9lua_Statei.exit ], [ %2, %3 ]
  ret double %12
}